Certificate:
    Data:
        Version: 3 (0x2)
        Serial Number: 2 (0x2)
    Signature Algorithm: sha256WithRSAEncryption
        Issuer: C=CH, ST=ZH, L=Zurich, O=private, OU=MyOrganization, CN=private CA/name=server/emailAddress=me@my.mail
        Validity
            Not Before: Jun 19 20:12:00 2017 GMT
            Not After : Jun 17 20:12:00 2027 GMT
        Subject: C=CH, ST=ZH, L=Zurich, O=private, OU=MyOrganization, CN=client1/name=server/emailAddress=me@my.mail
        Subject Public Key Info:
            Public Key Algorithm: rsaEncryption
                Public-Key: (2048 bit)
                Modulus:
                    00:b5:6d:d5:99:78:01:40:9c:f2:36:06:8b:47:76:
                    12:16:69:6a:d3:30:05:ce:85:ba:5c:0a:2d:00:c0:
                    0d:1c:ca:5f:ad:72:ef:47:b6:8b:e6:fc:b3:60:0d:
                    a4:70:9c:53:47:51:61:d2:33:f5:bc:e9:50:10:ac:
                    e0:6d:ba:df:53:ad:d5:f4:22:02:37:c4:13:ae:63:
                    9d:5e:8f:36:77:65:52:d0:13:40:8d:72:79:f2:e8:
                    01:44:3a:69:8a:00:92:c1:89:f6:f6:f3:15:42:e4:
                    12:9c:f7:ea:c7:ff:1f:f3:d2:94:1b:44:fa:68:0d:
                    3d:6b:7b:da:a7:04:0b:aa:fa:26:d2:47:b6:89:a0:
                    84:8d:15:d3:43:4b:fb:9a:69:1e:41:5f:17:24:b7:
                    fc:ac:0e:5a:52:b7:0e:6f:61:21:da:08:cd:5f:9b:
                    f1:83:9e:5c:55:db:03:e6:4c:c0:65:0d:5e:61:c9:
                    6d:b1:4d:6e:7b:19:28:c2:ab:bd:02:73:a8:d2:59:
                    5f:05:ff:25:e4:0e:7e:94:f5:c8:75:e2:e9:e0:67:
                    02:c3:50:de:d0:cd:43:5d:05:d4:4c:74:b4:01:96:
                    55:f0:1c:e8:4a:00:ff:7c:37:1f:38:6c:40:f6:79:
                    12:b9:a2:6d:14:26:d0:10:d1:f1:c9:de:08:ba:cd:
                    7f:17
                Exponent: 65537 (0x10001)
        X509v3 extensions:
            X509v3 Basic Constraints: 
                CA:FALSE
            Netscape Comment: 
                Easy-RSA Generated Certificate
            X509v3 Subject Key Identifier: 
                58:43:8E:D1:F1:B1:0B:DF:46:26:5F:54:F6:CB:A3:90:70:4A:25:32
            X509v3 Authority Key Identifier: 
                keyid:2F:93:B1:8B:CC:22:0D:B3:89:06:88:DB:74:AF:E0:18:2D:6A:85:A1
                DirName:/C=CH/ST=ZH/L=Zurich/O=private/OU=MyOrganization/CN=private CA/name=server/emailAddress=me@my.mail
                serial:D7:D1:4F:FA:D1:47:D5:2C

            X509v3 Extended Key Usage: 
                TLS Web Client Authentication
            X509v3 Key Usage: 
                Digital Signature
    Signature Algorithm: sha256WithRSAEncryption
         c7:1d:00:d3:d5:73:93:a8:5e:32:17:d1:35:38:9a:cc:fc:52:
         fb:7d:ff:de:b8:55:df:9d:53:cc:ac:82:2b:f7:f0:e6:3c:eb:
         8c:3f:52:82:d0:5d:a4:80:73:ca:3d:96:b9:7b:ce:c7:27:35:
         67:96:b1:ea:67:98:36:ce:2c:66:d4:7e:16:7d:08:0d:34:2f:
         b8:4b:58:91:39:4c:78:83:d0:48:2f:e5:48:a2:6f:61:67:a0:
         5c:6a:be:6b:cb:e7:29:c4:cd:36:ab:b5:dc:8a:2e:85:c0:9d:
         06:9b:8c:b2:8e:e4:08:d4:13:93:a8:a1:9d:9b:08:fa:41:8c:
         2f:d1:ba:7d:b8:38:28:90:93:02:d8:25:84:53:18:1c:55:db:
         8b:f9:5e:02:14:79:0d:cc:e5:02:bb:bc:ef:8a:36:d7:9c:94:
         4f:a9:7c:2c:6f:fd:0d:f5:6a:45:25:31:8b:05:a3:90:86:d7:
         28:3a:e6:6f:ce:b6:4f:ff:cb:9b:33:fd:6c:0a:ec:bc:2f:41:
         4b:f5:04:61:2a:aa:c6:37:ef:28:a5:57:7b:c3:8d:11:6e:58:
         cb:0d:31:9a:03:89:9a:d6:2f:cf:f1:ee:e1:85:3e:c5:f9:a6:
         43:e8:ac:14:c9:d1:8f:0e:ff:73:3c:f5:b2:b6:19:38:f0:ce:
         2f:e7:78:10
-----BEGIN CERTIFICATE-----
MIIE+DCCA+CgAwIBAgIBAjANBgkqhkiG9w0BAQsFADCBlzELMAkGA1UEBhMCQ0gx
CzAJBgNVBAgTAlpIMQ8wDQYDVQQHEwZadXJpY2gxEDAOBgNVBAoTB3ByaXZhdGUx
FzAVBgNVBAsTDk15T3JnYW5pemF0aW9uMRMwEQYDVQQDEwpwcml2YXRlIENBMQ8w
DQYDVQQpEwZzZXJ2ZXIxGTAXBgkqhkiG9w0BCQEWCm1lQG15Lm1haWwwHhcNMTcw
NjE5MjAxMjAwWhcNMjcwNjE3MjAxMjAwWjCBlDELMAkGA1UEBhMCQ0gxCzAJBgNV
BAgTAlpIMQ8wDQYDVQQHEwZadXJpY2gxEDAOBgNVBAoTB3ByaXZhdGUxFzAVBgNV
BAsTDk15T3JnYW5pemF0aW9uMRAwDgYDVQQDEwdjbGllbnQxMQ8wDQYDVQQpEwZz
ZXJ2ZXIxGTAXBgkqhkiG9w0BCQEWCm1lQG15Lm1haWwwggEiMA0GCSqGSIb3DQEB
AQUAA4IBDwAwggEKAoIBAQC1bdWZeAFAnPI2BotHdhIWaWrTMAXOhbpcCi0AwA0c
yl+tcu9Htovm/LNgDaRwnFNHUWHSM/W86VAQrOBtut9TrdX0IgI3xBOuY51ejzZ3
ZVLQE0CNcnny6AFEOmmKAJLBifb28xVC5BKc9+rH/x/z0pQbRPpoDT1re9qnBAuq
+ibSR7aJoISNFdNDS/uaaR5BXxckt/ysDlpStw5vYSHaCM1fm/GDnlxV2wPmTMBl
DV5hyW2xTW57GSjCq70Cc6jSWV8F/yXkDn6U9ch14ungZwLDUN7QzUNdBdRMdLQB
llXwHOhKAP98Nx84bED2eRK5om0UJtAQ0fHJ3gi6zX8XAgMBAAGjggFOMIIBSjAJ
BgNVHRMEAjAAMC0GCWCGSAGG+EIBDQQgFh5FYXN5LVJTQSBHZW5lcmF0ZWQgQ2Vy
dGlmaWNhdGUwHQYDVR0OBBYEFFhDjtHxsQvfRiZfVPbLo5BwSiUyMIHMBgNVHSME
gcQwgcGAFC+TsYvMIg2ziQaI23Sv4BgtaoWhoYGdpIGaMIGXMQswCQYDVQQGEwJD
SDELMAkGA1UECBMCWkgxDzANBgNVBAcTBlp1cmljaDEQMA4GA1UEChMHcHJpdmF0
ZTEXMBUGA1UECxMOTXlPcmdhbml6YXRpb24xEzARBgNVBAMTCnByaXZhdGUgQ0Ex
DzANBgNVBCkTBnNlcnZlcjEZMBcGCSqGSIb3DQEJARYKbWVAbXkubWFpbIIJANfR
T/rRR9UsMBMGA1UdJQQMMAoGCCsGAQUFBwMCMAsGA1UdDwQEAwIHgDANBgkqhkiG
9w0BAQsFAAOCAQEAxx0A09Vzk6heMhfRNTiazPxS+33/3rhV351TzKyCK/fw5jzr
jD9SgtBdpIBzyj2WuXvOxyc1Z5ax6meYNs4sZtR+Fn0IDTQvuEtYkTlMeIPQSC/l
SKJvYWegXGq+a8vnKcTNNqu13IouhcCdBpuMso7kCNQTk6ihnZsI+kGML9G6fbg4
KJCTAtglhFMYHFXbi/leAhR5DczlAru874o215yUT6l8LG/9DfVqRSUxiwWjkIbX
KDrmb862T//LmzP9bArsvC9BS/UEYSqqxjfvKKVXe8ONEW5Yyw0xmgOJmtYvz/Hu
4YU+xfmmQ+isFMnRjw7/czz1srYZOPDOL+d4EA==
-----END CERTIFICATE-----
