Certificate:
    Data:
        Version: 3 (0x2)
        Serial Number: 1 (0x1)
    Signature Algorithm: sha256WithRSAEncryption
        Issuer: C=CH, ST=ZH, L=Zurich, O=private, OU=MyOrganizationalUnit, CN=private CA/name=EasyRSA/emailAddress=me@workspace.mkdev
        Validity
            Not Before: Jun 11 18:41:10 2017 GMT
            Not After : Jun  9 18:41:10 2027 GMT
        Subject: C=CH, ST=ZH, L=Zurich, O=private, OU=MyOrganizationalUnit, CN=vagrant-server/name=EasyRSA/emailAddress=me@workspace.mkdev
        Subject Public Key Info:
            Public Key Algorithm: rsaEncryption
                Public-Key: (2048 bit)
                Modulus:
                    00:cd:1b:82:67:81:f2:36:7a:1e:af:84:45:86:e9:
                    79:d1:f6:12:b2:72:e3:f3:17:ab:9d:bb:b8:37:12:
                    c0:68:36:fd:bf:c3:9a:f3:b9:81:93:43:ed:49:14:
                    cf:fe:d1:82:32:04:64:3b:0d:f2:11:92:28:53:6f:
                    1f:3e:bc:d4:10:17:26:0f:11:aa:f4:01:c6:c2:2a:
                    f9:26:7a:e7:97:40:7e:5f:86:46:f9:77:21:a8:8f:
                    b6:e5:07:89:cd:d4:98:7a:df:ed:74:3d:da:66:68:
                    25:a5:4c:a0:6c:b5:77:e4:80:14:5b:81:9b:48:c9:
                    74:0b:e0:62:29:53:49:56:cf:86:57:5f:6d:07:7b:
                    c4:e7:9f:66:59:34:a0:df:0a:9c:45:c3:5d:6a:f4:
                    6b:21:50:76:ae:dd:73:a1:ec:7c:fb:0c:74:30:e8:
                    f0:00:59:a9:41:cd:05:91:a9:bc:80:08:8e:f8:dc:
                    30:bd:b3:aa:e0:bd:59:87:73:65:12:71:eb:53:cb:
                    0f:30:b2:90:8d:6f:45:be:30:8a:3c:3c:05:ca:67:
                    02:dd:b9:50:57:c9:8e:da:47:88:32:f0:d1:e9:b7:
                    77:cb:b1:f2:b9:c9:b1:8e:44:87:c6:56:d8:2c:86:
                    a2:a4:01:d7:3f:0a:21:09:f8:cd:4e:b1:b5:d7:73:
                    73:3b
                Exponent: 65537 (0x10001)
        X509v3 extensions:
            X509v3 Basic Constraints: 
                CA:FALSE
            Netscape Cert Type: 
                SSL Server
            Netscape Comment: 
                Easy-RSA Generated Server Certificate
            X509v3 Subject Key Identifier: 
                AD:28:04:54:85:85:51:9C:52:9B:D1:4C:5E:38:5F:30:7A:DE:E4:C7
            X509v3 Authority Key Identifier: 
                keyid:F9:D6:8B:0A:35:BC:36:13:21:23:C2:E8:5F:23:51:A7:0B:EC:E9:CA
                DirName:/C=CH/ST=ZH/L=Zurich/O=private/OU=MyOrganizationalUnit/CN=private CA/name=EasyRSA/emailAddress=me@workspace.mkdev
                serial:86:32:DE:07:09:77:59:95

            X509v3 Extended Key Usage: 
                TLS Web Server Authentication
            X509v3 Key Usage: 
                Digital Signature, Key Encipherment
    Signature Algorithm: sha256WithRSAEncryption
         9e:44:e9:c6:73:ab:4a:79:39:cb:63:b1:91:7b:32:ab:55:03:
         17:1a:d7:a7:43:16:12:a4:b4:1c:bb:bb:5f:ef:92:2d:24:b7:
         21:7d:0c:11:e9:53:83:e5:34:3b:3e:43:a4:09:5e:45:f2:01:
         7d:b3:b4:1d:d2:56:3c:19:90:f6:38:08:57:69:38:3a:57:bf:
         d7:04:ee:55:22:fd:02:72:22:70:75:49:9b:25:a8:7d:ba:44:
         ab:df:5d:79:69:2c:41:fb:47:e8:3e:76:92:dc:17:ef:66:81:
         bf:c9:6d:d3:ec:8d:e4:b2:8a:4e:cf:cd:b4:0f:dd:22:7f:a4:
         68:ad:c5:44:3c:a1:20:a4:ff:6d:8d:de:f5:6e:0e:b4:93:ec:
         00:f2:bd:9c:7e:0c:c4:c9:2c:61:cd:06:af:99:07:a4:f6:0e:
         e2:06:fc:09:4c:3b:e9:36:17:cd:66:cb:af:a2:8c:53:69:dd:
         e4:b6:17:40:92:28:a2:f6:35:5b:3e:dc:ce:52:dd:e8:a0:60:
         8d:c3:2b:0a:6a:7a:40:6f:20:6c:0b:28:ee:0f:77:9f:80:e1:
         c4:df:ba:2e:26:2b:f5:0a:4f:67:da:08:2d:a2:17:e5:e8:15:
         2c:16:ac:4c:46:a6:dd:df:73:6d:94:04:cc:38:af:fb:bf:d9:
         14:3d:ce:02
-----BEGIN CERTIFICATE-----
MIIFRjCCBC6gAwIBAgIBATANBgkqhkiG9w0BAQsFADCBpjELMAkGA1UEBhMCQ0gx
CzAJBgNVBAgTAlpIMQ8wDQYDVQQHEwZadXJpY2gxEDAOBgNVBAoTB3ByaXZhdGUx
HTAbBgNVBAsTFE15T3JnYW5pemF0aW9uYWxVbml0MRMwEQYDVQQDEwpwcml2YXRl
IENBMRAwDgYDVQQpEwdFYXN5UlNBMSEwHwYJKoZIhvcNAQkBFhJtZUB3b3Jrc3Bh
Y2UubWtkZXYwHhcNMTcwNjExMTg0MTEwWhcNMjcwNjA5MTg0MTEwWjCBqjELMAkG
A1UEBhMCQ0gxCzAJBgNVBAgTAlpIMQ8wDQYDVQQHEwZadXJpY2gxEDAOBgNVBAoT
B3ByaXZhdGUxHTAbBgNVBAsTFE15T3JnYW5pemF0aW9uYWxVbml0MRcwFQYDVQQD
Ew52YWdyYW50LXNlcnZlcjEQMA4GA1UEKRMHRWFzeVJTQTEhMB8GCSqGSIb3DQEJ
ARYSbWVAd29ya3NwYWNlLm1rZGV2MIIBIjANBgkqhkiG9w0BAQEFAAOCAQ8AMIIB
CgKCAQEAzRuCZ4HyNnoer4RFhul50fYSsnLj8xernbu4NxLAaDb9v8Oa87mBk0Pt
SRTP/tGCMgRkOw3yEZIoU28fPrzUEBcmDxGq9AHGwir5Jnrnl0B+X4ZG+XchqI+2
5QeJzdSYet/tdD3aZmglpUygbLV35IAUW4GbSMl0C+BiKVNJVs+GV19tB3vE559m
WTSg3wqcRcNdavRrIVB2rt1zoex8+wx0MOjwAFmpQc0Fkam8gAiO+NwwvbOq4L1Z
h3NlEnHrU8sPMLKQjW9FvjCKPDwFymcC3blQV8mO2keIMvDR6bd3y7HyucmxjkSH
xlbYLIaipAHXPwohCfjNTrG113NzOwIDAQABo4IBdzCCAXMwCQYDVR0TBAIwADAR
BglghkgBhvhCAQEEBAMCBkAwNAYJYIZIAYb4QgENBCcWJUVhc3ktUlNBIEdlbmVy
YXRlZCBTZXJ2ZXIgQ2VydGlmaWNhdGUwHQYDVR0OBBYEFK0oBFSFhVGcUpvRTF44
XzB63uTHMIHbBgNVHSMEgdMwgdCAFPnWiwo1vDYTISPC6F8jUacL7OnKoYGspIGp
MIGmMQswCQYDVQQGEwJDSDELMAkGA1UECBMCWkgxDzANBgNVBAcTBlp1cmljaDEQ
MA4GA1UEChMHcHJpdmF0ZTEdMBsGA1UECxMUTXlPcmdhbml6YXRpb25hbFVuaXQx
EzARBgNVBAMTCnByaXZhdGUgQ0ExEDAOBgNVBCkTB0Vhc3lSU0ExITAfBgkqhkiG
9w0BCQEWEm1lQHdvcmtzcGFjZS5ta2RldoIJAIYy3gcJd1mVMBMGA1UdJQQMMAoG
CCsGAQUFBwMBMAsGA1UdDwQEAwIFoDANBgkqhkiG9w0BAQsFAAOCAQEAnkTpxnOr
Snk5y2OxkXsyq1UDFxrXp0MWEqS0HLu7X++SLSS3IX0MEelTg+U0Oz5DpAleRfIB
fbO0HdJWPBmQ9jgIV2k4Ole/1wTuVSL9AnIicHVJmyWofbpEq99deWksQftH6D52
ktwX72aBv8lt0+yN5LKKTs/NtA/dIn+kaK3FRDyhIKT/bY3e9W4OtJPsAPK9nH4M
xMksYc0Gr5kHpPYO4gb8CUw76TYXzWbLr6KMU2nd5LYXQJIoovY1Wz7czlLd6KBg
jcMrCmp6QG8gbAso7g93n4DhxN+6LiYr9QpPZ9oILaIX5egVLBasTEam3d9zbZQE
zDiv+7/ZFD3OAg==
-----END CERTIFICATE-----
