Certificate:
    Data:
        Version: 3 (0x2)
        Serial Number: 1 (0x1)
    Signature Algorithm: sha256WithRSAEncryption
        Issuer: C=CH, ST=ZH, L=Zurich, O=private, OU=MyOrganization, CN=private CA/name=server/emailAddress=me@my.mail
        Validity
            Not Before: Jun 19 20:05:22 2017 GMT
            Not After : Jun 17 20:05:22 2027 GMT
        Subject: C=CH, ST=ZH, L=Zurich, O=private, OU=MyOrganization, CN=vagrant-server/name=server/emailAddress=me@my.mail
        Subject Public Key Info:
            Public Key Algorithm: rsaEncryption
                Public-Key: (2048 bit)
                Modulus:
                    00:da:71:a6:e9:21:27:83:72:2e:64:36:d8:6a:07:
                    46:1f:dc:f8:98:b1:c3:d9:f0:df:31:c7:29:6d:bb:
                    fc:8b:e6:89:6e:08:88:a0:c4:d7:66:f0:35:01:de:
                    17:2f:8f:51:7a:28:ce:d8:dc:63:f2:da:5d:01:c5:
                    cc:ca:16:73:17:34:ba:06:30:33:de:44:65:f1:74:
                    08:fa:1a:d1:94:15:a8:84:26:65:04:5d:62:6c:2d:
                    29:95:a3:6b:2c:88:9e:f4:b8:bb:e6:fd:2b:52:57:
                    5e:fb:80:f8:68:e4:09:18:d9:1f:55:34:54:e5:5d:
                    6a:5c:22:10:84:ee:f4:86:e2:26:b2:b8:e4:7b:59:
                    8d:85:89:6e:aa:0c:1d:eb:90:65:27:6c:58:49:c4:
                    96:a8:50:11:53:82:2f:53:97:1d:c8:26:5f:d8:d3:
                    0f:0a:4d:c4:c1:cf:86:b6:97:f7:6e:79:8a:f6:50:
                    a2:c2:5d:48:6f:a4:3f:2d:bf:ea:f6:84:1b:81:4b:
                    25:0b:bc:fd:19:4b:e8:05:cf:b4:50:5f:b9:dc:62:
                    2c:66:7f:a2:97:2f:77:34:4e:9d:91:37:2e:4b:90:
                    13:f5:33:09:d7:ff:ad:39:01:8f:cb:d4:bb:ef:e3:
                    da:cf:56:79:1f:13:94:64:96:84:a7:f7:da:64:78:
                    47:a5
                Exponent: 65537 (0x10001)
        X509v3 extensions:
            X509v3 Basic Constraints: 
                CA:FALSE
            Netscape Cert Type: 
                SSL Server
            Netscape Comment: 
                Easy-RSA Generated Server Certificate
            X509v3 Subject Key Identifier: 
                51:DC:94:D5:B5:50:88:C4:AB:B8:B1:74:5D:FC:C4:63:E4:C3:4B:09
            X509v3 Authority Key Identifier: 
                keyid:2F:93:B1:8B:CC:22:0D:B3:89:06:88:DB:74:AF:E0:18:2D:6A:85:A1
                DirName:/C=CH/ST=ZH/L=Zurich/O=private/OU=MyOrganization/CN=private CA/name=server/emailAddress=me@my.mail
                serial:D7:D1:4F:FA:D1:47:D5:2C

            X509v3 Extended Key Usage: 
                TLS Web Server Authentication
            X509v3 Key Usage: 
                Digital Signature, Key Encipherment
    Signature Algorithm: sha256WithRSAEncryption
         5d:ba:43:b4:6d:34:78:d5:a9:d6:cd:5d:4b:d6:44:44:db:e8:
         8e:16:c0:b6:b2:39:20:a0:48:72:9d:d1:25:14:32:68:02:05:
         dc:8f:49:02:31:44:da:17:e5:0e:85:c9:6e:0d:e7:ce:e2:77:
         42:7a:38:44:6c:1e:29:c5:33:42:2f:c6:b6:77:b2:43:09:4b:
         17:95:99:e4:af:ad:d8:37:74:19:1c:4e:28:09:f0:ec:aa:0e:
         e7:ef:d1:bf:97:b4:15:6c:ae:ba:91:d9:dd:12:a9:9f:56:7b:
         37:56:c0:96:6f:74:49:b6:9d:2f:65:3f:ea:4d:a6:38:53:b9:
         72:d7:3f:b4:96:18:95:50:5c:26:e7:51:5e:f1:97:70:d2:bb:
         77:c0:ea:f9:d9:bc:7b:42:fc:62:70:5b:72:7a:b7:52:19:e2:
         cd:71:8c:ed:73:ed:e3:00:70:82:3e:e8:f4:a3:c4:62:38:d0:
         58:0a:8d:fd:af:ab:84:48:28:18:92:8b:60:6a:e8:92:2c:4b:
         46:d8:38:e6:b3:f3:ae:12:4c:d1:57:c4:79:1f:e6:63:a2:4e:
         cd:7a:eb:d5:cf:74:a5:f0:aa:8e:ef:72:e8:d8:f1:33:69:39:
         57:db:29:3d:e8:ea:10:cf:77:3b:1e:bf:91:09:49:17:eb:bc:
         13:c2:e4:63
-----BEGIN CERTIFICATE-----
MIIFGTCCBAGgAwIBAgIBATANBgkqhkiG9w0BAQsFADCBlzELMAkGA1UEBhMCQ0gx
CzAJBgNVBAgTAlpIMQ8wDQYDVQQHEwZadXJpY2gxEDAOBgNVBAoTB3ByaXZhdGUx
FzAVBgNVBAsTDk15T3JnYW5pemF0aW9uMRMwEQYDVQQDEwpwcml2YXRlIENBMQ8w
DQYDVQQpEwZzZXJ2ZXIxGTAXBgkqhkiG9w0BCQEWCm1lQG15Lm1haWwwHhcNMTcw
NjE5MjAwNTIyWhcNMjcwNjE3MjAwNTIyWjCBmzELMAkGA1UEBhMCQ0gxCzAJBgNV
BAgTAlpIMQ8wDQYDVQQHEwZadXJpY2gxEDAOBgNVBAoTB3ByaXZhdGUxFzAVBgNV
BAsTDk15T3JnYW5pemF0aW9uMRcwFQYDVQQDEw52YWdyYW50LXNlcnZlcjEPMA0G
A1UEKRMGc2VydmVyMRkwFwYJKoZIhvcNAQkBFgptZUBteS5tYWlsMIIBIjANBgkq
hkiG9w0BAQEFAAOCAQ8AMIIBCgKCAQEA2nGm6SEng3IuZDbYagdGH9z4mLHD2fDf
Mccpbbv8i+aJbgiIoMTXZvA1Ad4XL49ReijO2Nxj8tpdAcXMyhZzFzS6BjAz3kRl
8XQI+hrRlBWohCZlBF1ibC0plaNrLIie9Li75v0rUlde+4D4aOQJGNkfVTRU5V1q
XCIQhO70huImsrjke1mNhYluqgwd65BlJ2xYScSWqFARU4IvU5cdyCZf2NMPCk3E
wc+Gtpf3bnmK9lCiwl1Ib6Q/Lb/q9oQbgUslC7z9GUvoBc+0UF+53GIsZn+ily93
NE6dkTcuS5AT9TMJ1/+tOQGPy9S77+Paz1Z5HxOUZJaEp/faZHhHpQIDAQABo4IB
aDCCAWQwCQYDVR0TBAIwADARBglghkgBhvhCAQEEBAMCBkAwNAYJYIZIAYb4QgEN
BCcWJUVhc3ktUlNBIEdlbmVyYXRlZCBTZXJ2ZXIgQ2VydGlmaWNhdGUwHQYDVR0O
BBYEFFHclNW1UIjEq7ixdF38xGPkw0sJMIHMBgNVHSMEgcQwgcGAFC+TsYvMIg2z
iQaI23Sv4BgtaoWhoYGdpIGaMIGXMQswCQYDVQQGEwJDSDELMAkGA1UECBMCWkgx
DzANBgNVBAcTBlp1cmljaDEQMA4GA1UEChMHcHJpdmF0ZTEXMBUGA1UECxMOTXlP
cmdhbml6YXRpb24xEzARBgNVBAMTCnByaXZhdGUgQ0ExDzANBgNVBCkTBnNlcnZl
cjEZMBcGCSqGSIb3DQEJARYKbWVAbXkubWFpbIIJANfRT/rRR9UsMBMGA1UdJQQM
MAoGCCsGAQUFBwMBMAsGA1UdDwQEAwIFoDANBgkqhkiG9w0BAQsFAAOCAQEAXbpD
tG00eNWp1s1dS9ZERNvojhbAtrI5IKBIcp3RJRQyaAIF3I9JAjFE2hflDoXJbg3n
zuJ3Qno4RGweKcUzQi/GtneyQwlLF5WZ5K+t2Dd0GRxOKAnw7KoO5+/Rv5e0FWyu
upHZ3RKpn1Z7N1bAlm90SbadL2U/6k2mOFO5ctc/tJYYlVBcJudRXvGXcNK7d8Dq
+dm8e0L8YnBbcnq3UhnizXGM7XPt4wBwgj7o9KPEYjjQWAqN/a+rhEgoGJKLYGro
kixLRtg45rPzrhJM0VfEeR/mY6JOzXrr1c90pfCqju9y6NjxM2k5V9spPejqEM93
Ox6/kQlJF+u8E8LkYw==
-----END CERTIFICATE-----
